target datalayout = "e-m:e-p270:32:32-p271:32:32-p272:64:64-i64:64-i128:128-f80:128-n8:16:32:64-S128"
target triple = "x86_64-pc-linux-gnu"

%struct.SDL_TrayMenu = type { ptr, i32, ptr, ptr, ptr }

@.str.7 = private unnamed_addr constant [26 x i8] c"Parameter '%s' is invalid\00", align 1
@.str.12 = private unnamed_addr constant [5 x i8] c"menu\00", align 1

; Function Attrs: nounwind uwtable
define hidden ptr @SDL_GetTrayEntries_REAL(ptr noundef %0, ptr noundef %1) #0 {
  %3 = alloca ptr, align 8
  %4 = alloca ptr, align 8
  %5 = alloca ptr, align 8
  store ptr %0, ptr %4, align 8
  store ptr %1, ptr %5, align 8
  %6 = load ptr, ptr %4, align 8
  %7 = icmp ne ptr %6, null
  br i1 %7, label %10, label %8

8:                                                ; preds = %2
  %9 = call zeroext i1 (ptr, ...) @SDL_SetError_REAL(ptr noundef @.str.7, ptr noundef @.str.12)
  store ptr null, ptr %3, align 8
  br label %22

10:                                               ; preds = %2
  %11 = load ptr, ptr %5, align 8
  %12 = icmp ne ptr %11, null
  br i1 %12, label %13, label %18

13:                                               ; preds = %10
  %14 = load ptr, ptr %4, align 8
  %15 = getelementptr inbounds nuw %struct.SDL_TrayMenu, ptr %14, i32 0, i32 1
  %16 = load i32, ptr %15, align 8
  %17 = load ptr, ptr %5, align 8
  store i32 %16, ptr %17, align 4
  br label %18

18:                                               ; preds = %13, %10
  %19 = load ptr, ptr %4, align 8
  %20 = getelementptr inbounds nuw %struct.SDL_TrayMenu, ptr %19, i32 0, i32 2
  %21 = load ptr, ptr %20, align 8
  store ptr %21, ptr %3, align 8
  br label %22

22:                                               ; preds = %18, %8
  %23 = load ptr, ptr %3, align 8
  ret ptr %23
}