; Function Attrs: nounwind uwtable
define hidden ptr @SDL_GetTrayEntries_REAL(ptr noundef readonly captures(address_is_null) %0, ptr noundef writeonly captures(address_is_null) %1) local_unnamed_addr #0 {
  %.not = icmp eq ptr %0, null
  br i1 %.not, label %3, label %5

3:                                                ; preds = %2
  %4 = tail call zeroext i1 (ptr, ...) @SDL_SetError_REAL(ptr noundef nonnull @.str.7, ptr noundef nonnull @.str.12) #10
  br label %12

5:                                                ; preds = %2
  %.not8 = icmp eq ptr %1, null
  br i1 %.not8, label %9, label %6

6:                                                ; preds = %5
  %7 = getelementptr inbounds nuw i8, ptr %0, i64 8
  %8 = load i32, ptr %7, align 8
  store i32 %8, ptr %1, align 4
  br label %9

9:                                                ; preds = %6, %5
  %10 = getelementptr inbounds nuw i8, ptr %0, i64 16
  %11 = load ptr, ptr %10, align 8
  br label %12

12:                                               ; preds = %9, %3
  %.0 = phi ptr [ %11, %9 ], [ null, %3 ]
  ret ptr %.0
}